	.module Wendu_fasong.c
	.area text(rom, con, rel)
	.dbfile C:\DOCUME~1\Administrator\桌面\JASK2001软件开发包\M16-NRF905开发包\无线AD传感\FASONG\Wendu_fasong.c
	.area data(ram, con, rel)
	.dbfile C:\DOCUME~1\Administrator\桌面\JASK2001软件开发包\M16-NRF905开发包\无线AD传感\FASONG\Wendu_fasong.c
_table::
	.blkb 2
	.area idata
	.byte 0,1
	.area data(ram, con, rel)
	.dbfile C:\DOCUME~1\Administrator\桌面\JASK2001软件开发包\M16-NRF905开发包\无线AD传感\FASONG\Wendu_fasong.c
	.blkb 2
	.area idata
	.byte 2,3
	.area data(ram, con, rel)
	.dbfile C:\DOCUME~1\Administrator\桌面\JASK2001软件开发包\M16-NRF905开发包\无线AD传感\FASONG\Wendu_fasong.c
	.blkb 2
	.area idata
	.byte 4,5
	.area data(ram, con, rel)
	.dbfile C:\DOCUME~1\Administrator\桌面\JASK2001软件开发包\M16-NRF905开发包\无线AD传感\FASONG\Wendu_fasong.c
	.blkb 2
	.area idata
	.byte 6,7
	.area data(ram, con, rel)
	.dbfile C:\DOCUME~1\Administrator\桌面\JASK2001软件开发包\M16-NRF905开发包\无线AD传感\FASONG\Wendu_fasong.c
	.blkb 2
	.area idata
	.byte 8,9
	.area data(ram, con, rel)
	.dbfile C:\DOCUME~1\Administrator\桌面\JASK2001软件开发包\M16-NRF905开发包\无线AD传感\FASONG\Wendu_fasong.c
	.dbsym e table _table A[10:10]c
_seg::
	.blkb 2
	.area idata
	.byte 192,207
	.area data(ram, con, rel)
	.dbfile C:\DOCUME~1\Administrator\桌面\JASK2001软件开发包\M16-NRF905开发包\无线AD传感\FASONG\Wendu_fasong.c
	.blkb 2
	.area idata
	.byte 164,176
	.area data(ram, con, rel)
	.dbfile C:\DOCUME~1\Administrator\桌面\JASK2001软件开发包\M16-NRF905开发包\无线AD传感\FASONG\Wendu_fasong.c
	.blkb 2
	.area idata
	.byte 153,146
	.area data(ram, con, rel)
	.dbfile C:\DOCUME~1\Administrator\桌面\JASK2001软件开发包\M16-NRF905开发包\无线AD传感\FASONG\Wendu_fasong.c
	.blkb 2
	.area idata
	.byte 130,248
	.area data(ram, con, rel)
	.dbfile C:\DOCUME~1\Administrator\桌面\JASK2001软件开发包\M16-NRF905开发包\无线AD传感\FASONG\Wendu_fasong.c
	.blkb 2
	.area idata
	.byte 128,144
	.area data(ram, con, rel)
	.dbfile C:\DOCUME~1\Administrator\桌面\JASK2001软件开发包\M16-NRF905开发包\无线AD传感\FASONG\Wendu_fasong.c
	.dbsym e seg _seg A[10:10]c
_seg1::
	.blkb 2
	.area idata
	.byte 64,'O
	.area data(ram, con, rel)
	.dbfile C:\DOCUME~1\Administrator\桌面\JASK2001软件开发包\M16-NRF905开发包\无线AD传感\FASONG\Wendu_fasong.c
	.blkb 2
	.area idata
	.byte 36,48
	.area data(ram, con, rel)
	.dbfile C:\DOCUME~1\Administrator\桌面\JASK2001软件开发包\M16-NRF905开发包\无线AD传感\FASONG\Wendu_fasong.c
	.blkb 2
	.area idata
	.byte 25,18
	.area data(ram, con, rel)
	.dbfile C:\DOCUME~1\Administrator\桌面\JASK2001软件开发包\M16-NRF905开发包\无线AD传感\FASONG\Wendu_fasong.c
	.blkb 2
	.area idata
	.byte 2,'x
	.area data(ram, con, rel)
	.dbfile C:\DOCUME~1\Administrator\桌面\JASK2001软件开发包\M16-NRF905开发包\无线AD传感\FASONG\Wendu_fasong.c
	.blkb 2
	.area idata
	.byte 0,16
	.area data(ram, con, rel)
	.dbfile C:\DOCUME~1\Administrator\桌面\JASK2001软件开发包\M16-NRF905开发包\无线AD传感\FASONG\Wendu_fasong.c
	.dbsym e seg1 _seg1 A[10:10]c
_TxAddress::
	.blkb 2
	.area idata
	.byte 204,204
	.area data(ram, con, rel)
	.dbfile C:\DOCUME~1\Administrator\桌面\JASK2001软件开发包\M16-NRF905开发包\无线AD传感\FASONG\Wendu_fasong.c
	.blkb 2
	.area idata
	.byte 204,204
	.area data(ram, con, rel)
	.dbfile C:\DOCUME~1\Administrator\桌面\JASK2001软件开发包\M16-NRF905开发包\无线AD传感\FASONG\Wendu_fasong.c
	.dbsym e TxAddress _TxAddress A[4:4]c
_RFConf::
	.blkb 2
	.area idata
	.byte 0,'L
	.area data(ram, con, rel)
	.dbfile C:\DOCUME~1\Administrator\桌面\JASK2001软件开发包\M16-NRF905开发包\无线AD传感\FASONG\Wendu_fasong.c
	.blkb 2
	.area idata
	.byte 12,'D
	.area data(ram, con, rel)
	.dbfile C:\DOCUME~1\Administrator\桌面\JASK2001软件开发包\M16-NRF905开发包\无线AD传感\FASONG\Wendu_fasong.c
	.blkb 2
	.area idata
	.byte 4,4
	.area data(ram, con, rel)
	.dbfile C:\DOCUME~1\Administrator\桌面\JASK2001软件开发包\M16-NRF905开发包\无线AD传感\FASONG\Wendu_fasong.c
	.blkb 2
	.area idata
	.byte 204,204
	.area data(ram, con, rel)
	.dbfile C:\DOCUME~1\Administrator\桌面\JASK2001软件开发包\M16-NRF905开发包\无线AD传感\FASONG\Wendu_fasong.c
	.blkb 2
	.area idata
	.byte 204,204
	.area data(ram, con, rel)
	.dbfile C:\DOCUME~1\Administrator\桌面\JASK2001软件开发包\M16-NRF905开发包\无线AD传感\FASONG\Wendu_fasong.c
	.blkb 1
	.area idata
	.byte 'X
	.area data(ram, con, rel)
	.dbfile C:\DOCUME~1\Administrator\桌面\JASK2001软件开发包\M16-NRF905开发包\无线AD传感\FASONG\Wendu_fasong.c
	.dbsym e RFConf _RFConf A[11:11]c
	.area text(rom, con, rel)
	.dbfile C:\DOCUME~1\Administrator\桌面\JASK2001软件开发包\M16-NRF905开发包\无线AD传感\FASONG\Wendu_fasong.c
	.dbfunc e delay _delay fV
;              i -> R20,R21
;              x -> R16,R17
	.even
_delay::
	xcall push_gset1
	.dbline -1
	.dbline 107
; //ICC-AVR application builder : 2007-8-11 20:37:32
; // Target : M16
; // Crystal: 8.0000Mhz
; #include <iom16v.h>
; #include <macros.h>
; //------------------------------------------------------------------------------
; #define uint  unsigned int
; #define uchar unsigned char
; //------------------------------AD变量------------------------------------------
; uchar  AD_num,AD_data[4];
; unsigned char table[]={0,1,2,3,4,5,6,7,8,9};
; //------------------------------------------------------------------------------
; uchar seg[10]={0xC0,0xCF,0xA4,0xB0,0x99,0x92,0x82,0xF8,0x80,0x90};         //0~~9段码
; uchar seg1[10]={0x40,0x4F,0x24,0x30,0x19,0x12,0x02,0x78,0x00,0x10};
; //******************************************************************************
; //***********************NRF905端口设置*****************************************
; //******************************************************************************
; ///////////////////////////模式控制定义/////////////////////////////////
; //#define  nrf905_TX_EN	  PB0	    //输出1
; #define   Hign_nrf905_TX_EN    PORTB |= (1 << PB0);   
; #define   Low_nrf905_TX_EN     PORTB &= ~(1 << PB0); 
; //#define  nrf905_TRX_CE  PD4 	    //输出1
; #define   Hign_nrf905_TRX_CE    PORTD |= (1 << PD4);   
; #define   Low_nrf905_TRX_CE     PORTD &= ~(1 << PD4); 
; //#define  nrf905_PWR     PB1 	    //输出1
; #define   Hign_nrf905_PWR    PORTB |= (1 << PB1);   
; #define   Low_nrf905_PWR     PORTB &= ~(1 << PB1); 
; ///////////////////////////SPI口定义////////////////////////////////////
; //#define  nrf905_MISO	  PB6   	//输入0
; //#define  nrf905_MOSI    PB5	    //输出1
; //#define  nrf905_SCK     PB7	    //输出1
; #define   Low_nrf905_SCK     PORTB &= ~(1 << PB7); 
; ////////////////////////////////////////////////////////////////////////
; //#define  nrf905_CSN     PB4		//输出1		
; #define   Hign_nrf905_CSN    PORTB |= (1 << PB4);   
; #define   Low_nrf905_CSN     PORTB &= ~(1 << PB4); 						
; ///////////////////////////状态输出口///////////////////////////////////
; //#define  nrf905_CD      PD3	    //输入0
; #define   Hign_nrf905_CD    PORTD |= (1 << PD3);   
; #define   Low_nrf905_CD     PORTD &= ~(1 << PD3); 
; #define   Read_nrf905_CD    PINB & (1 << PD4);
; //#define  nrf905_AM      PB3	    //输入0
; #define   Hign_nrf905_AM    PORTB |= (1 << PB3);   
; #define   Low_nrf905_AM     PORTB &= ~(1 << PB3); 
; #define   Read_nrf905_AM    PINB & (1 << PB3);
; //#define  nrf905_DR      PB2  		//输入0
; #define   Hign_nrf905_DR     PORTB |= (1 << PB2);   
; #define   Low_nrf905_DR     PORTB &= ~(1 << PB2); 
; #define   Read_nrf905_DR    PINB & (1 << PB2);   
; //------------------------------数码管位选--------------------------------------
; //#define Display1   PA1  		    //输出1
; #define   Hign_Display1     PORTA |= (1 << PA1);   
; #define   Low_Display1    PORTA &= ~(1 << PA1); 
; //#define Display2      PA2  		//输出1
; #define   Hign_Display2     PORTA |= (1 << PA2);   
; #define   Low_Display2    PORTA &= ~(1 << PA2); 
; //#define Display3     PA3  		//输出1
; #define   Hign_Display3     PORTA |= (1 << PA3);   
; #define   Low_Display3     PORTA &= ~(1 << PA3); 
; //#define Display4      PA4 		//输出1
; #define   Hign_Display4     PORTA |= (1 << PA4);   
; #define   Low_Display4     PORTA &= ~(1 << PA4);   
; //-------------------------------BELL蜂明器-------------------------------------
; #define   Hign_BELL  PORTD |= (1 << PD5);   
; #define   Low_BELL     PORTD &= ~(1 << PD5); 
; //-------------------------------JDQ继电器--------------------------------------
; #define   Hign_JDQ  PORTD |= (1 << PD7)
; #define   Low_JDQ     PORTD &= ~(1 << PD7) 
; //----------------------------------905-SPI指令---------------------------------
; #define WC	0x00
; #define RRC	0x10
; #define WTP	0x20
; #define RTP	0x21
; #define WTA	0x22
; #define RTA	0x23
; #define RRP	0x24
; //---------------------------------发送数据-------------------------------------
; uchar TxRxBuf[4] ;
; //----------------------------------接收地址------------------------------------
; uchar TxAddress[4]={0xcc,0xcc,0xcc,0xcc };    
; //----------------------------------寄存器配置----------------------------------
; uchar RFConf[11]=
; {
;   0x00,                             //配置命令//
;   0x4c,                             //CH_NO,配置频段在430MHZ
;   0x0C,                             //输出功率为10db,不重发，节电为正常模式
;   0x44,                             //地址宽度设置，为4字节
;   0x04,0x04,                        //接收发送有效数据长度为4字节
;   0xCC,0xCC,0xCC,0xCC,              //接收地址
;   0x58,                              //CRC充许，8位CRC校验，外部时钟信号不使能，16M晶振
; };
; //----------------------------------函数申明------------------------------------
; void delay(uint x);
; void Spi_initial();
; uchar SpiReadSpiWrite(uchar DATA);
; void system_Init(void);
; void Config905(void);
; void TxPacket(void);
; void SetTxMode(void);
; void TX(void);
; //------------------------------------------------------------------------------
; //******************************************************************************
; //**********************************NRF905驱动**********************************
; //******************************************************************************
; //----------------------------------100us延时子程序-----------------------------
; void delay(uint x)
; {
	xjmp L3
L2:
	.dbline 110
	clr R20
	clr R21
	xjmp L8
L5:
	.dbline 110
L6:
	.dbline 110
	subi R20,255  ; offset = 1
	sbci R21,255
L8:
	.dbline 110
	cpi R20,80
	ldi R30,0
	cpc R21,R30
	brlo L5
L3:
	.dbline 109
; 	uint i;
; 	while(x--)
	movw R2,R16
	subi R16,1
	sbci R17,0
	tst R2
	brne L2
	tst R3
	brne L2
X0:
	.dbline -2
L1:
	xcall pop_gset1
	.dbline 0 ; func end
	ret
	.dbsym r i 20 i
	.dbsym r x 16 i
	.dbend
	.dbfunc e Spi_initial _Spi_initial fV
	.even
_Spi_initial::
	.dbline -1
	.dbline 114
; 	for(i=0;i<80;i++);
; }
; //----------------------------------SPI初始化-----------------------------------
; void Spi_initial()
; {
	.dbline 117
; 	//SPCR=0x50;
; 	//SPSR=0x00;	
; 	SPCR   = (1<<SPE)|(1<<MSTR)|(0<<CPOL)|(0<<SPR0);   // 主机模式，fck/16, SPI方式0
	ldi R24,80
	out 0xd,R24
	.dbline -2
L9:
	.dbline 0 ; func end
	ret
	.dbend
	.dbfunc e SpiReadSpiWrite _SpiReadSpiWrite fc
;          cData -> R16
	.even
_SpiReadSpiWrite::
	.dbline -1
	.dbline 121
; }
; //---------------------------------SPI读写程序----------------------------------	
; uchar SpiReadSpiWrite(unsigned char cData)//r
; {
	.dbline 122
; 	SPDR = cData;
	out 0xf,R16
L11:
	.dbline 124
	.dbline 124
L12:
	.dbline 123
; 	while(!(SPSR & (1<<SPIF) ))
	sbis 0xe,7
	rjmp L11
	.dbline 124
; 	{};			// 等待SPI发送完毕
	.dbline 125
; 	return SPDR;
	in R16,0xf
	.dbline -2
L10:
	.dbline 0 ; func end
	ret
	.dbsym r cData 16 c
	.dbend
	.dbfunc e system_Init _system_Init fV
	.even
_system_Init::
	.dbline -1
	.dbline 129
; }
; //---------------------------------系统状态初始化-------------------------------
; void system_Init(void)			//r
; {
	.dbline 131
; 
;    	Hign_nrf905_CSN;				// Spi 	disable
	sbi 0x18,4
	.dbline 131
	.dbline 132
; 	Low_nrf905_SCK;				// Spi clock line init low
	cbi 0x18,7
	.dbline 132
	.dbline 133
; 	Low_nrf905_DR;				// Init DR for input
	cbi 0x18,2
	.dbline 133
	.dbline 134
; 	Low_nrf905_AM;				// Init AM for input
	cbi 0x18,3
	.dbline 134
	.dbline 135
; 	Low_nrf905_CD;				// Init nrf905_CDfor input
	cbi 0x12,3
	.dbline 135
	.dbline 136
; 	Hign_nrf905_PWR;				// nRF905 power on
	sbi 0x18,1
	.dbline 136
	.dbline 137
; 	Low_nrf905_TRX_CE;			// Set nRF905 in standby mode
	cbi 0x12,4
	.dbline 137
	.dbline 138
; 	Low_nrf905_TX_EN ;			// set radio in Rx mode
	cbi 0x18,0
	.dbline 138
	.dbline -2
L14:
	.dbline 0 ; func end
	ret
	.dbend
	.dbfunc e Config905 _Config905 fV
;              i -> R20
	.even
_Config905::
	xcall push_gset1
	.dbline -1
	.dbline 142
; }
; //--------------------------------NRF905寄存器初始化函数------------------------
; void Config905(void)
; {
	.dbline 144
; 	uchar i;
; 	Low_nrf905_CSN;	
	cbi 0x18,4
	.dbline 144
	.dbline 145
; 	delay(1);				// Spi enable for write a spi command
	ldi R16,1
	ldi R17,0
	xcall _delay
	.dbline 147
; 	//SpiWrite(WC);				// Write config command写放配置命令
; 	for (i=0;i<11;i++)			// Write configration words  写放配置字
	clr R20
	xjmp L19
L16:
	.dbline 148
	.dbline 149
	ldi R24,<_RFConf
	ldi R25,>_RFConf
	mov R30,R20
	clr R31
	add R30,R24
	adc R31,R25
	ldd R16,z+0
	xcall _SpiReadSpiWrite
	.dbline 150
L17:
	.dbline 147
	inc R20
L19:
	.dbline 147
	cpi R20,11
	brlo L16
	.dbline 151
; 	{
; 	 SpiReadSpiWrite(RFConf[i]);
; 	}
; 	Hign_nrf905_CSN;					// Disable Spi
	sbi 0x18,4
	.dbline 151
	.dbline -2
L15:
	xcall pop_gset1
	.dbline 0 ; func end
	ret
	.dbsym r i 20 c
	.dbend
	.dbfunc e TxPacket _TxPacket fV
;              i -> R20
	.even
_TxPacket::
	xcall push_gset1
	.dbline -1
	.dbline 155
; }
; //--------------------------------NRF905待发数据打包----------------------------
; void TxPacket(void)
; {
	.dbline 157
; 	uchar i;
; 	Low_nrf905_CSN;		   				// 使能Spi，允许对nrf905进行读写操作
	cbi 0x18,4
	.dbline 157
	.dbline 158
; 	delay(1);
	ldi R16,1
	ldi R17,0
	xcall _delay
	.dbline 159
; 	SpiReadSpiWrite(WTP);				// 写数据前先写写数据命令
	ldi R16,32
	xcall _SpiReadSpiWrite
	.dbline 160
; 	for (i=0;i<4;i++)
	clr R20
	xjmp L24
L21:
	.dbline 161
	.dbline 162
	ldi R24,<_AD_data
	ldi R25,>_AD_data
	mov R30,R20
	clr R31
	add R30,R24
	adc R31,R25
	ldd R16,z+0
	xcall _SpiReadSpiWrite
	.dbline 163
L22:
	.dbline 160
	inc R20
L24:
	.dbline 160
	cpi R20,4
	brlo L21
	.dbline 164
; 	{
; 	SpiReadSpiWrite( AD_data[i]);		// 待发送的32字节数据
; 	}						
; 	Hign_nrf905_CSN;
	sbi 0x18,4
	.dbline 164
	.dbline 165
; 	delay(1);							// 关闭Spi，不允许对nrf905进行读写操作
	ldi R16,1
	ldi R17,0
	xcall _delay
	.dbline 166
; 	Low_nrf905_CSN;								// 使能Spi
	cbi 0x18,4
	.dbline 166
	.dbline 167
; 	SpiReadSpiWrite(WTA);				// 写地址前首先先写地址命令
	ldi R16,34
	xcall _SpiReadSpiWrite
	.dbline 168
; 	for (i=0;i<4;i++)					// 写 4 bytes 地址
	clr R20
	xjmp L28
L25:
	.dbline 169
	.dbline 170
	ldi R24,<_TxAddress
	ldi R25,>_TxAddress
	mov R30,R20
	clr R31
	add R30,R24
	adc R31,R25
	ldd R16,z+0
	xcall _SpiReadSpiWrite
	.dbline 171
L26:
	.dbline 168
	inc R20
L28:
	.dbline 168
	cpi R20,4
	brlo L25
	.dbline 172
; 	{
; 	SpiReadSpiWrite(TxAddress[i]);
; 	}
; 	Hign_nrf905_CSN;					// 关闭Spi
	sbi 0x18,4
	.dbline 172
	.dbline 173
; 	Hign_nrf905_TRX_CE;					// Set TRX_CE high,start Tx data transmission
	sbi 0x12,4
	.dbline 173
	.dbline 174
; 	delay(1);							// 等待DR变高
	ldi R16,1
	ldi R17,0
	xcall _delay
	.dbline 175
; 	Low_nrf905_TRX_CE;							// 设置TRX_CE=0
	cbi 0x12,4
	.dbline 175
	.dbline -2
L20:
	xcall pop_gset1
	.dbline 0 ; func end
	ret
	.dbsym r i 20 c
	.dbend
	.dbfunc e SetTxMode _SetTxMode fV
	.even
_SetTxMode::
	.dbline -1
	.dbline 179
; }
; //-------------------------------发送模式激发-----------------------------------
; void SetTxMode(void)
; {
	.dbline 180
; 	Low_nrf905_TRX_CE;				//
	cbi 0x12,4
	.dbline 180
	.dbline 181
; 	Hign_nrf905_TX_EN;				//发送使能
	sbi 0x18,0
	.dbline 181
	.dbline 182
; 	delay(2); 				// delay for mode change(>=650us)根据晶振不同要改变
	ldi R16,2
	ldi R17,0
	xcall _delay
	.dbline -2
L29:
	.dbline 0 ; func end
	ret
	.dbend
	.dbfunc e TX _TX fV
	.even
_TX::
	.dbline -1
	.dbline 186
; }
; //------------------------------------------------------------------------------
; void TX(void)
; {
	.dbline 187
;      SetTxMode();	   // Set nRF905 in Tx mode
	xcall _SetTxMode
	.dbline 188
; 	 TxPacket();			   // Send data by nRF905
	xcall _TxPacket
	.dbline -2
L30:
	.dbline 0 ; func end
	ret
	.dbend
	.dbfunc e GetADResult _GetADResult fc
;              i -> R16
	.even
_GetADResult::
	.dbline -1
	.dbline 195
; }
; //******************************************************************************
; //**********************************AD数据采集*****************************
; //******************************************************************************
; //-----------------------------AD转换函数----------------------------------------
; unsigned char GetADResult(void)
; {
	.dbline 202
; 	unsigned char i;
; /**********************ADC 多工选择寄存器－ ADMUX配置方法********************/
; /*      Bit   7     6     5     4    3    2    1    0     (Page203)        */
; /*          REFS1 REFS0 ADLAR MUX4 MUX3 MUX2 MUX1 MUX0                    */
; /*            1     1     1     0    0    1    1    1                    */
; /************************************************************************/
; 	ADMUX |= (1 << REFS1);  //2.56V 的片内基准电压源， AREF 引脚外加滤波电容
	sbi 0x7,7
	.dbline 203
; 	ADMUX |= (1 << REFS0);  //2.56V 的片内基准电压源， AREF 引脚外加滤波电容
	sbi 0x7,6
	.dbline 204
; 	ADMUX |= (1 << ADLAR);  //ADC 转换结果 左对齐
	sbi 0x7,5
	.dbline 205
; 	ADMUX &= ~(1 << MUX4);  //ADC0单端输入
	cbi 0x7,4
	.dbline 206
; 	ADMUX &= ~(1 << MUX3);  //ADC0单端输入
	cbi 0x7,3
	.dbline 207
; 	ADMUX &= ~(1 << MUX2);  //ADC0单端输入
	cbi 0x7,2
	.dbline 208
; 	ADMUX &= ~(1 << MUX1);  //ADC0单端输入
	cbi 0x7,1
	.dbline 209
; 	ADMUX &= ~(1 << MUX0);  //ADC0单端输入
	cbi 0x7,0
	.dbline 216
; 
; /********************ADC 控制和状态寄存器A -ADCSRA配置方法*************************/
; /*      Bit   7     6     5     4    3    2    1    0     (Page205)               */
; /*          ADEN ADSC ADATE ADIF ADIE ADPS2 ADPS1 ADPS0                           */
; /*            1     1     0     0    0    0    1    1                             */
; /**********************************************************************************/
; 	ADCSRA |= (1 << ADEN);  //ADC 使能
	sbi 0x6,7
	.dbline 217
; 	ADCSRA |= (1 << ADSC);  //ADC 开始转换
	sbi 0x6,6
	.dbline 218
; 	ADCSRA &= ~(1 << ADATE);//无ADC 自动触发使能
	cbi 0x6,5
	.dbline 219
; 	ADCSRA &= ~(1 << ADIF); //ADC 中断标志
	cbi 0x6,4
	.dbline 220
; 	ADCSRA &= ~(1 << ADIE); //不使用中断
	cbi 0x6,3
	.dbline 221
; 	ADCSRA |= (1 << ADPS2);//128分频时钟
	sbi 0x6,2
	.dbline 222
; 	ADCSRA |= (1 << ADPS1); //128分频时钟
	sbi 0x6,1
	.dbline 223
; 	ADCSRA |= (1 << ADPS0);//128分频时钟
	sbi 0x6,0
L32:
	.dbline 226
L33:
	.dbline 226
; 	
; //------------------------------------------------------------------------------
; 	while(!(ADCSRA & (1 << ADIF)));	//等待转换完成后ADIF自动置位
	sbis 0x6,4
	rjmp L32
	.dbline 227
; 	i = ADCH;
	in R16,0x5
	.dbline 228
; 	ADCSRA &= ~(1 << ADIF);		/*清标志*/
	cbi 0x6,4
	.dbline 229
; 	ADCSRA &= ~(1 << ADEN);		/*关闭转换*/
	cbi 0x6,7
	.dbline 231
; 
; 	return i;
	.dbline -2
L31:
	.dbline 0 ; func end
	ret
	.dbsym r i 16 c
	.dbend
	.dbfunc e GetBaiwei _GetBaiwei fc
;           temp -> R20
	.even
_GetBaiwei::
	xcall push_gset1
	mov R20,R16
	.dbline -1
	.dbline 235
; }
; //--------------------------------//AD数据采集百位------------------------------
; unsigned char GetBaiwei(unsigned char temp)   
; {
	.dbline 236
; 	temp = temp/100;
	ldi R17,100
	mov R16,R20
	xcall div8u
	mov R20,R16
	.dbline 237
; 	return temp;
	.dbline -2
L35:
	xcall pop_gset1
	.dbline 0 ; func end
	ret
	.dbsym r temp 20 c
	.dbend
	.dbfunc e GetShiwei _GetShiwei fc
;           temp -> R20
	.even
_GetShiwei::
	xcall push_gset1
	mov R20,R16
	.dbline -1
	.dbline 241
; }
; //-----------------------------//AD数据采集十位---------------------------------
; unsigned char GetShiwei(unsigned char temp)  
; {
	.dbline 242
; 	if(temp > 99)
	ldi R24,99
	cp R24,R20
	brsh L37
	.dbline 243
; 	{
	.dbline 244
; 		temp = temp - GetBaiwei(temp)*100;
	mov R16,R20
	xcall _GetBaiwei
	ldi R24,100
	mul R24,R16
	sub R20,R0
	.dbline 245
; 	}
L37:
	.dbline 246
; 	temp = temp/10;
	ldi R17,10
	mov R16,R20
	xcall div8u
	mov R20,R16
	.dbline 247
; 	return temp;
	.dbline -2
L36:
	xcall pop_gset1
	.dbline 0 ; func end
	ret
	.dbsym r temp 20 c
	.dbend
	.dbfunc e GetGewei _GetGewei fc
;           temp -> R20
	.even
_GetGewei::
	xcall push_gset1
	mov R20,R16
	.dbline -1
	.dbline 251
; }
; //---------------------------- //AD数据采集个位---------------------------------
; unsigned char GetGewei(unsigned char temp)   
; {
	.dbline 252
; 	temp = temp%10;
	ldi R17,10
	mov R16,R20
	xcall mod8u
	mov R20,R16
	.dbline 253
; 	return temp;
	.dbline -2
L39:
	xcall pop_gset1
	.dbline 0 ; func end
	ret
	.dbsym r temp 20 c
	.dbend
	.dbfunc e dis_zhuye _dis_zhuye fV
	.even
_dis_zhuye::
	.dbline -1
	.dbline 257
; }
; //------------------------------------------------------------------------------
; void dis_zhuye()
; {
	.dbline 258
; 	 PORTC=seg1[AD_data[1]];
	ldi R24,<_seg1
	ldi R25,>_seg1
	lds R30,_AD_data+1
	clr R31
	add R30,R24
	adc R31,R25
	ldd R2,z+0
	out 0x15,R2
	.dbline 259
; 	 Hign_Display4;
	sbi 0x1b,4
	.dbline 259
	.dbline 260
; 	 Hign_Display3;
	sbi 0x1b,3
	.dbline 260
	.dbline 261
; 	 Hign_Display2;
	sbi 0x1b,2
	.dbline 261
	.dbline 262
; 	 Low_Display1;
	cbi 0x1b,1
	.dbline 262
	.dbline 263
; 	 delay(80);
	ldi R16,80
	ldi R17,0
	xcall _delay
	.dbline 264
; 	 Hign_Display1;
	sbi 0x1b,1
	.dbline 264
	.dbline 266
; //------------------------------------------------------------------------------
; 	 PORTC=seg[AD_data[2]];
	ldi R24,<_seg
	ldi R25,>_seg
	lds R30,_AD_data+2
	clr R31
	add R30,R24
	adc R31,R25
	ldd R2,z+0
	out 0x15,R2
	.dbline 267
; 	 Low_Display2;
	cbi 0x1b,2
	.dbline 267
	.dbline 268
; 	 delay(80);
	ldi R16,80
	ldi R17,0
	xcall _delay
	.dbline 269
; 	 Hign_Display2;
	sbi 0x1b,2
	.dbline 269
	.dbline 271
; //------------------------------------------------ ---------------------------
; 	 PORTC=seg[AD_data[3]];
	ldi R24,<_seg
	ldi R25,>_seg
	lds R30,_AD_data+3
	clr R31
	add R30,R24
	adc R31,R25
	ldd R2,z+0
	out 0x15,R2
	.dbline 272
; 	 Low_Display3;
	cbi 0x1b,3
	.dbline 272
	.dbline 273
; 	 delay(80);
	ldi R16,80
	ldi R17,0
	xcall _delay
	.dbline 274
; 	 Hign_Display3;
	sbi 0x1b,3
	.dbline 274
	.dbline 276
; //----------------------------------------------------------------------------- 
; 	 PORTC=0xc1;
	ldi R24,193
	out 0x15,R24
	.dbline 277
; 	 Low_Display4;
	cbi 0x1b,4
	.dbline 277
	.dbline 278
; 	 delay(80);
	ldi R16,80
	ldi R17,0
	xcall _delay
	.dbline 279
; 	 Hign_Display4;	 
	sbi 0x1b,4
	.dbline 279
	.dbline -2
L40:
	.dbline 0 ; func end
	ret
	.dbend
	.dbfunc e main _main fI
	.even
_main::
	.dbline -1
	.dbline 283
; }
; //----------------------------------主函数--------------------------------------
; main()
; {
	.dbline 285
; //------------------------------------------------------------------------------
; 	DDRD=0xb2;		  //
	ldi R24,178
	out 0x11,R24
	.dbline 286
; 	DDRB=0xB3;		  //
	ldi R24,179
	out 0x17,R24
	.dbline 287
; 	DDRA=0x1e;       //
	ldi R24,30
	out 0x1a,R24
	.dbline 288
; 	DDRC=0xff; 		//LED端口设置
	ldi R24,255
	out 0x14,R24
	.dbline 289
; 	PORTA = 0xff;
	out 0x1b,R24
	.dbline 290
; 	Hign_BELL;	
	sbi 0x12,5
	.dbline 290
	.dbline 291
; 	Hign_JDQ ;
	sbi 0x12,7
	.dbline 293
; //------------------------------------------------------------------------------
; 	Spi_initial();
	xcall _Spi_initial
	.dbline 294
; 	system_Init();
	xcall _system_Init
	.dbline 295
; 	Config905();
	xcall _Config905
	.dbline 297
; //------------------------------------------------------------------------------
; 	delay(1000);
	ldi R16,1000
	ldi R17,3
	xcall _delay
	xjmp L46
L45:
	.dbline 299
	.dbline 300
	xcall _GetADResult
	sts _AD_num,R16
	.dbline 301
	ldi R24,170
	sts _AD_data,R24
	.dbline 302
	xcall _GetBaiwei
	ldi R24,<_table
	ldi R25,>_table
	mov R30,R16
	clr R31
	add R30,R24
	adc R31,R25
	ldd R2,z+0
	sts _AD_data+1,R2
	.dbline 303
	lds R16,_AD_num
	xcall _GetShiwei
	ldi R24,<_table
	ldi R25,>_table
	mov R30,R16
	clr R31
	add R30,R24
	adc R31,R25
	ldd R2,z+0
	sts _AD_data+2,R2
	.dbline 304
	lds R16,_AD_num
	xcall _GetGewei
	ldi R24,<_table
	ldi R25,>_table
	mov R30,R16
	clr R31
	add R30,R24
	adc R31,R25
	ldd R2,z+0
	sts _AD_data+3,R2
	.dbline 305
	xcall _TX
	.dbline 306
	xcall _dis_zhuye
	.dbline 307
L46:
	.dbline 298
	xjmp L45
X1:
	.dbline -2
L44:
	.dbline 0 ; func end
	ret
	.dbend
	.area bss(ram, con, rel)
	.dbfile C:\DOCUME~1\Administrator\桌面\JASK2001软件开发包\M16-NRF905开发包\无线AD传感\FASONG\Wendu_fasong.c
_TxRxBuf::
	.blkb 4
	.dbsym e TxRxBuf _TxRxBuf A[4:4]c
_AD_data::
	.blkb 4
	.dbsym e AD_data _AD_data A[4:4]c
_AD_num::
	.blkb 1
	.dbsym e AD_num _AD_num c
