	.module jfp_fasong.c
	.area text(rom, con, rel)
	.dbfile C:\DOCUME~1\Administrator\桌面\JASK2001软件开发包\M16-NRF905开发包\无线232传输系统\NRF905_发送\jfp_fasong.c
	.area data(ram, con, rel)
	.dbfile C:\DOCUME~1\Administrator\桌面\JASK2001软件开发包\M16-NRF905开发包\无线232传输系统\NRF905_发送\jfp_fasong.c
_TxRxBuf::
	.blkb 2
	.area idata
	.byte 1,2
	.area data(ram, con, rel)
	.dbfile C:\DOCUME~1\Administrator\桌面\JASK2001软件开发包\M16-NRF905开发包\无线232传输系统\NRF905_发送\jfp_fasong.c
	.blkb 2
	.area idata
	.byte 3,4
	.area data(ram, con, rel)
	.dbfile C:\DOCUME~1\Administrator\桌面\JASK2001软件开发包\M16-NRF905开发包\无线232传输系统\NRF905_发送\jfp_fasong.c
	.blkb 2
	.area idata
	.byte 5,6
	.area data(ram, con, rel)
	.dbfile C:\DOCUME~1\Administrator\桌面\JASK2001软件开发包\M16-NRF905开发包\无线232传输系统\NRF905_发送\jfp_fasong.c
	.blkb 2
	.area idata
	.byte 7,8
	.area data(ram, con, rel)
	.dbfile C:\DOCUME~1\Administrator\桌面\JASK2001软件开发包\M16-NRF905开发包\无线232传输系统\NRF905_发送\jfp_fasong.c
	.blkb 2
	.area idata
	.byte 9,16
	.area data(ram, con, rel)
	.dbfile C:\DOCUME~1\Administrator\桌面\JASK2001软件开发包\M16-NRF905开发包\无线232传输系统\NRF905_发送\jfp_fasong.c
	.blkb 2
	.area idata
	.byte 17,18
	.area data(ram, con, rel)
	.dbfile C:\DOCUME~1\Administrator\桌面\JASK2001软件开发包\M16-NRF905开发包\无线232传输系统\NRF905_发送\jfp_fasong.c
	.blkb 2
	.area idata
	.byte 19,20
	.area data(ram, con, rel)
	.dbfile C:\DOCUME~1\Administrator\桌面\JASK2001软件开发包\M16-NRF905开发包\无线232传输系统\NRF905_发送\jfp_fasong.c
	.blkb 2
	.area idata
	.byte 21,22
	.area data(ram, con, rel)
	.dbfile C:\DOCUME~1\Administrator\桌面\JASK2001软件开发包\M16-NRF905开发包\无线232传输系统\NRF905_发送\jfp_fasong.c
	.blkb 2
	.area idata
	.byte 23,24
	.area data(ram, con, rel)
	.dbfile C:\DOCUME~1\Administrator\桌面\JASK2001软件开发包\M16-NRF905开发包\无线232传输系统\NRF905_发送\jfp_fasong.c
	.blkb 2
	.area idata
	.byte 25,32
	.area data(ram, con, rel)
	.dbfile C:\DOCUME~1\Administrator\桌面\JASK2001软件开发包\M16-NRF905开发包\无线232传输系统\NRF905_发送\jfp_fasong.c
	.blkb 2
	.area idata
	.byte 33,34
	.area data(ram, con, rel)
	.dbfile C:\DOCUME~1\Administrator\桌面\JASK2001软件开发包\M16-NRF905开发包\无线232传输系统\NRF905_发送\jfp_fasong.c
	.blkb 2
	.area idata
	.byte 35,36
	.area data(ram, con, rel)
	.dbfile C:\DOCUME~1\Administrator\桌面\JASK2001软件开发包\M16-NRF905开发包\无线232传输系统\NRF905_发送\jfp_fasong.c
	.blkb 2
	.area idata
	.byte 37,38
	.area data(ram, con, rel)
	.dbfile C:\DOCUME~1\Administrator\桌面\JASK2001软件开发包\M16-NRF905开发包\无线232传输系统\NRF905_发送\jfp_fasong.c
	.blkb 2
	.area idata
	.byte 39,40
	.area data(ram, con, rel)
	.dbfile C:\DOCUME~1\Administrator\桌面\JASK2001软件开发包\M16-NRF905开发包\无线232传输系统\NRF905_发送\jfp_fasong.c
	.blkb 2
	.area idata
	.byte 41,48
	.area data(ram, con, rel)
	.dbfile C:\DOCUME~1\Administrator\桌面\JASK2001软件开发包\M16-NRF905开发包\无线232传输系统\NRF905_发送\jfp_fasong.c
	.blkb 2
	.area idata
	.byte 49,50
	.area data(ram, con, rel)
	.dbfile C:\DOCUME~1\Administrator\桌面\JASK2001软件开发包\M16-NRF905开发包\无线232传输系统\NRF905_发送\jfp_fasong.c
	.dbsym e TxRxBuf _TxRxBuf A[32:32]c
_TxAddress::
	.blkb 2
	.area idata
	.byte 204,204
	.area data(ram, con, rel)
	.dbfile C:\DOCUME~1\Administrator\桌面\JASK2001软件开发包\M16-NRF905开发包\无线232传输系统\NRF905_发送\jfp_fasong.c
	.blkb 2
	.area idata
	.byte 204,204
	.area data(ram, con, rel)
	.dbfile C:\DOCUME~1\Administrator\桌面\JASK2001软件开发包\M16-NRF905开发包\无线232传输系统\NRF905_发送\jfp_fasong.c
	.dbsym e TxAddress _TxAddress A[4:4]c
_RFConf::
	.blkb 2
	.area idata
	.byte 0,'L
	.area data(ram, con, rel)
	.dbfile C:\DOCUME~1\Administrator\桌面\JASK2001软件开发包\M16-NRF905开发包\无线232传输系统\NRF905_发送\jfp_fasong.c
	.blkb 2
	.area idata
	.byte 12,'D
	.area data(ram, con, rel)
	.dbfile C:\DOCUME~1\Administrator\桌面\JASK2001软件开发包\M16-NRF905开发包\无线232传输系统\NRF905_发送\jfp_fasong.c
	.blkb 2
	.area idata
	.byte 32,32
	.area data(ram, con, rel)
	.dbfile C:\DOCUME~1\Administrator\桌面\JASK2001软件开发包\M16-NRF905开发包\无线232传输系统\NRF905_发送\jfp_fasong.c
	.blkb 2
	.area idata
	.byte 204,204
	.area data(ram, con, rel)
	.dbfile C:\DOCUME~1\Administrator\桌面\JASK2001软件开发包\M16-NRF905开发包\无线232传输系统\NRF905_发送\jfp_fasong.c
	.blkb 2
	.area idata
	.byte 204,204
	.area data(ram, con, rel)
	.dbfile C:\DOCUME~1\Administrator\桌面\JASK2001软件开发包\M16-NRF905开发包\无线232传输系统\NRF905_发送\jfp_fasong.c
	.blkb 1
	.area idata
	.byte 'X
	.area data(ram, con, rel)
	.dbfile C:\DOCUME~1\Administrator\桌面\JASK2001软件开发包\M16-NRF905开发包\无线232传输系统\NRF905_发送\jfp_fasong.c
	.dbsym e RFConf _RFConf A[11:11]c
	.area text(rom, con, rel)
	.dbfile C:\DOCUME~1\Administrator\桌面\JASK2001软件开发包\M16-NRF905开发包\无线232传输系统\NRF905_发送\jfp_fasong.c
	.dbfunc e Delay _Delay fV
;              i -> R20,R21
;              x -> R16,R17
	.even
_Delay::
	xcall push_gset1
	.dbline -1
	.dbline 89
; //ICC-AVR application builder : 2007-8-11 20:37:32
; // Target : M16
; // Crystal: 8.0000Mhz
; #include <iom16v.h>
; #include <macros.h>
; #define uint  unsigned int
; #define uchar unsigned char
; //******************************************************************************
; //***********************NRF905端口设置*****************************************
; //******************************************************************************
; ///////////////////////////模式控制定义/////////////////////////////////
; //#define  nrf905_TX_EN	  PB0	    //输出1
; #define   Hign_nrf905_TX_EN    PORTB |= (1 << PB0);   
; #define   Low_nrf905_TX_EN     PORTB &= ~(1 << PB0); 
; //#define  nrf905_TRX_CE  PD4 	    //输出1
; #define   Hign_nrf905_TRX_CE    PORTD |= (1 << PD4);   
; #define   Low_nrf905_TRX_CE     PORTD &= ~(1 << PD4); 
; //#define  nrf905_PWR     PB1 	    //输出1
; #define   Hign_nrf905_PWR    PORTB |= (1 << PB1);   
; #define   Low_nrf905_PWR     PORTB &= ~(1 << PB1); 
; //-------------------------------SPI口定义--------------------------------------
; //#define  nrf905_MISO	  PB6   	//输入0
; //#define  nrf905_MOSI    PB5	    //输出1
; //#define  nrf905_SCK     PB7	    //输出1
; #define   Low_nrf905_SCK     PORTB &= ~(1 << PB7); 
; //------------------------------------------------------------------------------
; //#define  nrf905_CSN     PB4		//输出1		
; #define   Hign_nrf905_CSN    PORTB |= (1 << PB4);   
; #define   Low_nrf905_CSN     PORTB &= ~(1 << PB4); 						
; //-------------------------------状态输出口-------------------------------------
; //#define  nrf905_CD      PD3	    //输入0
; #define   Hign_nrf905_CD    PORTD |= (1 << PD3);   
; #define   Low_nrf905_CD     PORTD &= ~(1 << PD3); 
; #define   Read_nrf905_CD    PINB & (1 << PD3);
; //#define  nrf905_AM      PB3	    //输入0
; #define   Hign_nrf905_AM    PORTB |= (1 << PB3);   
; #define   Low_nrf905_AM     PORTB &= ~(1 << PB3); 
; #define   Read_nrf905_AM    PINB & (1 << PB3);
; //#define  nrf905_DR      PB2  		//输入0
; #define   Hign_nrf905_DR     PORTB |= (1 << PB2);   
; #define   Low_nrf905_DR     PORTB &= ~(1 << PB2); 
; #define   Read_nrf905_DR    PINB & (1 << PB2);  
; //-------------------------------BELL蜂明器-------------------------------------
; #define   Hign_BELL  PORTD |= (1 << PD5);   
; #define   Low_BELL     PORTD &= ~(1 << PD5); 
; //-------------------------------JDQ继电器--------------------------------------
; #define   Hign_JDQ  PORTD |= (1 << PD7)
; #define   Low_JDQ     PORTD &= ~(1 << PD7) 
; //----------------------------------905-SPI指令---------------------------------
; #define WC	0x00
; #define RRC	0x10
; #define WTP	0x20
; #define RTP	0x21
; #define WTA	0x22
; #define RTA	0x23
; #define RRP	0x24
; //---------------------------------发送数据-------------------------------------
; uchar TxRxBuf[32]=			     
; {
; 0x01,0x02,0x03,0x04,0x05,0x06,0x07,0x08,
; 0x09,0x10,0x11,0x12,0x13,0x14,0x15,0x16,
; 0x17,0x18,0x19,0x20,0x21,0x22,0x23,0x24,
; 0x25,0x26,0x27,0x28,0x29,0x30,0x31,0x32,
; };
; //----------------------------------接收地址------------------------------------
; uchar TxAddress[4]={0xcc,0xcc,0xcc,0xcc };    
; //----------------------------------寄存器配置----------------------------------
; uchar RFConf[11]=
; {
;   0x00,                             //配置命令//
;   0x4c,                             //CH_NO,配置频段在423MHZ
;   0x0C,                             //输出功率为10db,不重发，节电为正常模式
;   0x44,                             //地址宽度设置，为4字节
;   0x20,0x20,                        //接收发送有效数据长度为32字节
;   0xCC,0xCC,0xCC,0xCC,              //接收地址
;   0x58,                             //CRC充许，8位CRC校验，外部时钟信号不使能，16M晶振
; };
; //----------------------------------函数申明------------------------------------
; void Delay(uint x);
; void Spi_initial();
; uchar SpiReadSpiWrite(uchar DATA);
; void system_Init(void);
; void Config905(void);
; void TxPacket(void);
; void SetTxMode(void);
; void TX(void);
; //-------------------------------延时子程序-------------------------------------
; void Delay(uint x)
; {
	xjmp L3
L2:
	.dbline 92
	clr R20
	clr R21
	xjmp L8
L5:
	.dbline 92
L6:
	.dbline 92
	subi R20,255  ; offset = 1
	sbci R21,255
L8:
	.dbline 92
	cpi R20,80
	ldi R30,0
	cpc R21,R30
	brlo L5
L3:
	.dbline 91
; 	uint i;
; 	while(x--)
	movw R2,R16
	subi R16,1
	sbci R17,0
	tst R2
	brne L2
	tst R3
	brne L2
X0:
	.dbline -2
L1:
	xcall pop_gset1
	.dbline 0 ; func end
	ret
	.dbsym r i 20 i
	.dbsym r x 16 i
	.dbend
	.dbfunc e Spi_initial _Spi_initial fV
	.even
_Spi_initial::
	.dbline -1
	.dbline 96
; 	for(i=0;i<80;i++);
; }
; //----------------------------------SPI初始化-----------------------------------
; void Spi_initial()
; {
	.dbline 99
; 	//SPCR=0x50;
; 	//SPSR=0x00;	
; 	SPCR   = (1<<SPE)|(1<<MSTR)|(0<<CPOL)|(0<<SPR0);   // 主机模式，fck/16, SPI方式0
	ldi R24,80
	out 0xd,R24
	.dbline -2
L9:
	.dbline 0 ; func end
	ret
	.dbend
	.dbfunc e SpiReadSpiWrite _SpiReadSpiWrite fc
;          cData -> R16
	.even
_SpiReadSpiWrite::
	.dbline -1
	.dbline 103
; }
; //---------------------------------SPI读写程序----------------------------------	
; uchar SpiReadSpiWrite(unsigned char cData)//r
; {
	.dbline 104
; 	SPDR = cData;
	out 0xf,R16
L11:
	.dbline 106
	.dbline 106
L12:
	.dbline 105
; 	while(!(SPSR & (1<<SPIF) ))
	sbis 0xe,7
	rjmp L11
	.dbline 106
; 	{};			// 等待SPI发送完毕
	.dbline 107
; 	return SPDR;
	in R16,0xf
	.dbline -2
L10:
	.dbline 0 ; func end
	ret
	.dbsym r cData 16 c
	.dbend
	.dbfunc e system_Init _system_Init fV
	.even
_system_Init::
	.dbline -1
	.dbline 111
; }
; //---------------------------------系统状态初始化-------------------------------
; void system_Init(void)			//r
; {
	.dbline 113
; 
;    	Hign_nrf905_CSN;				// Spi 	disable
	sbi 0x18,4
	.dbline 113
	.dbline 114
; 	Low_nrf905_SCK;				// Spi clock line init low
	cbi 0x18,7
	.dbline 114
	.dbline 115
; 	Low_nrf905_DR;				// Init DR for input
	cbi 0x18,2
	.dbline 115
	.dbline 116
; 	Low_nrf905_AM;				// Init AM for input
	cbi 0x18,3
	.dbline 116
	.dbline 117
; 	Low_nrf905_CD;				// Init nrf905_CDfor input
	cbi 0x12,3
	.dbline 117
	.dbline 118
; 	Hign_nrf905_PWR;				// nRF905 power on
	sbi 0x18,1
	.dbline 118
	.dbline 119
; 	Low_nrf905_TRX_CE;			// Set nRF905 in standby mode
	cbi 0x12,4
	.dbline 119
	.dbline 120
; 	Low_nrf905_TX_EN ;			// set radio in Rx mode
	cbi 0x18,0
	.dbline 120
	.dbline -2
L14:
	.dbline 0 ; func end
	ret
	.dbend
	.dbfunc e Config905 _Config905 fV
;              i -> R20
	.even
_Config905::
	xcall push_gset1
	.dbline -1
	.dbline 124
; }
; //--------------------------------NRF905寄存器初始化函数------------------------
; void Config905(void)
; {
	.dbline 126
; 	uchar i;
; 	Low_nrf905_CSN;	
	cbi 0x18,4
	.dbline 126
	.dbline 127
; 	Delay(1);				// Spi enable for write a spi command
	ldi R16,1
	ldi R17,0
	xcall _Delay
	.dbline 129
; 	//SpiWrite(WC);				// Write config command写放配置命令
; 	for (i=0;i<11;i++)			// Write configration words  写放配置字
	clr R20
	xjmp L19
L16:
	.dbline 130
	.dbline 131
	ldi R24,<_RFConf
	ldi R25,>_RFConf
	mov R30,R20
	clr R31
	add R30,R24
	adc R31,R25
	ldd R16,z+0
	xcall _SpiReadSpiWrite
	.dbline 132
L17:
	.dbline 129
	inc R20
L19:
	.dbline 129
	cpi R20,11
	brlo L16
	.dbline 133
; 	{
; 	 SpiReadSpiWrite(RFConf[i]);
; 	}
; 	Hign_nrf905_CSN;					// Disable Spi
	sbi 0x18,4
	.dbline 133
	.dbline -2
L15:
	xcall pop_gset1
	.dbline 0 ; func end
	ret
	.dbsym r i 20 c
	.dbend
	.dbfunc e TxPacket _TxPacket fV
;              i -> R20
	.even
_TxPacket::
	xcall push_gset1
	.dbline -1
	.dbline 137
; }
; //--------------------------------NRF905待发数据打包----------------------------
; void TxPacket(void)
; {
	.dbline 139
; 	uchar i;
; 	Low_nrf905_CSN;		   						// 使能Spi，允许对nrf905进行读写操作
	cbi 0x18,4
	.dbline 139
	.dbline 140
; 	Delay(1);
	ldi R16,1
	ldi R17,0
	xcall _Delay
	.dbline 141
; 	SpiReadSpiWrite(WTP);				// 写数据前先写写数据命令
	ldi R16,32
	xcall _SpiReadSpiWrite
	.dbline 142
; 	for (i=0;i<32;i++)
	clr R20
	xjmp L24
L21:
	.dbline 143
	.dbline 144
	ldi R24,<_TxRxBuf
	ldi R25,>_TxRxBuf
	mov R30,R20
	clr R31
	add R30,R24
	adc R31,R25
	ldd R16,z+0
	xcall _SpiReadSpiWrite
	.dbline 145
L22:
	.dbline 142
	inc R20
L24:
	.dbline 142
	cpi R20,32
	brlo L21
	.dbline 146
; 	{
; 	SpiReadSpiWrite(TxRxBuf[i]);		// 待发送的32字节数据
; 	}						
; 	Hign_nrf905_CSN;
	sbi 0x18,4
	.dbline 146
	.dbline 147
; 	Delay(1);							// 关闭Spi，不允许对nrf905进行读写操作
	ldi R16,1
	ldi R17,0
	xcall _Delay
	.dbline 148
; 	Low_nrf905_CSN;								// 使能Spi
	cbi 0x18,4
	.dbline 148
	.dbline 149
; 	SpiReadSpiWrite(WTA);				// 写地址前首先先写地址命令
	ldi R16,34
	xcall _SpiReadSpiWrite
	.dbline 150
; 	for (i=0;i<4;i++)					// 写 4 bytes 地址
	clr R20
	xjmp L28
L25:
	.dbline 151
	.dbline 152
	ldi R24,<_TxAddress
	ldi R25,>_TxAddress
	mov R30,R20
	clr R31
	add R30,R24
	adc R31,R25
	ldd R16,z+0
	xcall _SpiReadSpiWrite
	.dbline 153
L26:
	.dbline 150
	inc R20
L28:
	.dbline 150
	cpi R20,4
	brlo L25
	.dbline 154
; 	{
; 	SpiReadSpiWrite(TxAddress[i]);
; 	}
; 	Hign_nrf905_CSN;					// 关闭Spi
	sbi 0x18,4
	.dbline 154
	.dbline 155
; 	Hign_nrf905_TRX_CE;					// Set TRX_CE high,start Tx data transmission
	sbi 0x12,4
	.dbline 155
	.dbline 156
; 	Delay(1);							// 等待DR变高
	ldi R16,1
	ldi R17,0
	xcall _Delay
	.dbline 157
; 	Low_nrf905_TRX_CE;							// 设置TRX_CE=0
	cbi 0x12,4
	.dbline 157
	.dbline -2
L20:
	xcall pop_gset1
	.dbline 0 ; func end
	ret
	.dbsym r i 20 c
	.dbend
	.dbfunc e SetTxMode _SetTxMode fV
	.even
_SetTxMode::
	.dbline -1
	.dbline 161
; }
; //-------------------------------发送模式激发-----------------------------------
; void SetTxMode(void)
; {
	.dbline 162
; 	Low_nrf905_TRX_CE;				//
	cbi 0x12,4
	.dbline 162
	.dbline 163
; 	Hign_nrf905_TX_EN;				//发送使能
	sbi 0x18,0
	.dbline 163
	.dbline 164
; 	Delay(2); 				// delay for mode change(>=650us)根据晶振不同要改变
	ldi R16,2
	ldi R17,0
	xcall _Delay
	.dbline -2
L29:
	.dbline 0 ; func end
	ret
	.dbend
	.dbfunc e TX _TX fV
	.even
_TX::
	.dbline -1
	.dbline 168
; }
; //------------------------------------------------------------------------------
; void TX(void)
; {
	.dbline 169
;      SetTxMode();	   // Set nRF905 in Tx mode
	xcall _SetTxMode
	.dbline 170
; 	 TxPacket();			   // Send data by nRF905
	xcall _TxPacket
	.dbline -2
L30:
	.dbline 0 ; func end
	ret
	.dbend
	.dbfunc e main _main fV
	.even
_main::
	.dbline -1
	.dbline 174
; }
; //------------------------------主函数------------------------------------------
; void main(void)
; { 
	.dbline 175
; 	DDRB=0xB3;
	ldi R24,179
	out 0x17,R24
	.dbline 176
; 	DDRC=0xF8; 		//LCD端口设置
	ldi R24,248
	out 0x14,R24
	.dbline 177
; 	DDRD=0xf2;
	ldi R24,242
	out 0x11,R24
	.dbline 179
; //------------------------------------------------------------------------------
; 	Hign_BELL ;
	sbi 0x12,5
	.dbline 179
	.dbline 180
; 	Hign_JDQ;
	sbi 0x12,7
	.dbline 182
; //------------------------------------------------------------------------------
; 	Spi_initial();
	xcall _Spi_initial
	.dbline 183
; 	system_Init();
	xcall _system_Init
	.dbline 184
; 	Config905();
	xcall _Config905
	xjmp L33
L32:
	.dbline 187
	.dbline 188
	xcall _TX
	.dbline 189
L33:
	.dbline 186
	xjmp L32
X1:
	.dbline -2
L31:
	.dbline 0 ; func end
	ret
	.dbend
