	.module Wendu_jieshou.c
	.area text(rom, con, rel)
	.dbfile F:\PROTELDXP\123\无线参考程序\开发板备份\JASK2001软件开发包\M16-NRF905开发包\无线AD传感\JIESHOU-LED\Wendu_jieshou.c
	.area data(ram, con, rel)
	.dbfile F:\PROTELDXP\123\无线参考程序\开发板备份\JASK2001软件开发包\M16-NRF905开发包\无线AD传感\JIESHOU-LED\Wendu_jieshou.c
_TxAddress::
	.blkb 2
	.area idata
	.byte 204,204
	.area data(ram, con, rel)
	.dbfile F:\PROTELDXP\123\无线参考程序\开发板备份\JASK2001软件开发包\M16-NRF905开发包\无线AD传感\JIESHOU-LED\Wendu_jieshou.c
	.blkb 2
	.area idata
	.byte 204,204
	.area data(ram, con, rel)
	.dbfile F:\PROTELDXP\123\无线参考程序\开发板备份\JASK2001软件开发包\M16-NRF905开发包\无线AD传感\JIESHOU-LED\Wendu_jieshou.c
	.dbsym e TxAddress _TxAddress A[4:4]c
_seg::
	.blkb 2
	.area idata
	.byte 192,207
	.area data(ram, con, rel)
	.dbfile F:\PROTELDXP\123\无线参考程序\开发板备份\JASK2001软件开发包\M16-NRF905开发包\无线AD传感\JIESHOU-LED\Wendu_jieshou.c
	.blkb 2
	.area idata
	.byte 164,176
	.area data(ram, con, rel)
	.dbfile F:\PROTELDXP\123\无线参考程序\开发板备份\JASK2001软件开发包\M16-NRF905开发包\无线AD传感\JIESHOU-LED\Wendu_jieshou.c
	.blkb 2
	.area idata
	.byte 153,146
	.area data(ram, con, rel)
	.dbfile F:\PROTELDXP\123\无线参考程序\开发板备份\JASK2001软件开发包\M16-NRF905开发包\无线AD传感\JIESHOU-LED\Wendu_jieshou.c
	.blkb 2
	.area idata
	.byte 130,248
	.area data(ram, con, rel)
	.dbfile F:\PROTELDXP\123\无线参考程序\开发板备份\JASK2001软件开发包\M16-NRF905开发包\无线AD传感\JIESHOU-LED\Wendu_jieshou.c
	.blkb 2
	.area idata
	.byte 128,144
	.area data(ram, con, rel)
	.dbfile F:\PROTELDXP\123\无线参考程序\开发板备份\JASK2001软件开发包\M16-NRF905开发包\无线AD传感\JIESHOU-LED\Wendu_jieshou.c
	.dbsym e seg _seg A[10:10]c
_seg1::
	.blkb 2
	.area idata
	.byte 64,'O
	.area data(ram, con, rel)
	.dbfile F:\PROTELDXP\123\无线参考程序\开发板备份\JASK2001软件开发包\M16-NRF905开发包\无线AD传感\JIESHOU-LED\Wendu_jieshou.c
	.blkb 2
	.area idata
	.byte 36,48
	.area data(ram, con, rel)
	.dbfile F:\PROTELDXP\123\无线参考程序\开发板备份\JASK2001软件开发包\M16-NRF905开发包\无线AD传感\JIESHOU-LED\Wendu_jieshou.c
	.blkb 2
	.area idata
	.byte 25,18
	.area data(ram, con, rel)
	.dbfile F:\PROTELDXP\123\无线参考程序\开发板备份\JASK2001软件开发包\M16-NRF905开发包\无线AD传感\JIESHOU-LED\Wendu_jieshou.c
	.blkb 2
	.area idata
	.byte 2,'x
	.area data(ram, con, rel)
	.dbfile F:\PROTELDXP\123\无线参考程序\开发板备份\JASK2001软件开发包\M16-NRF905开发包\无线AD传感\JIESHOU-LED\Wendu_jieshou.c
	.blkb 2
	.area idata
	.byte 0,16
	.area data(ram, con, rel)
	.dbfile F:\PROTELDXP\123\无线参考程序\开发板备份\JASK2001软件开发包\M16-NRF905开发包\无线AD传感\JIESHOU-LED\Wendu_jieshou.c
	.dbsym e seg1 _seg1 A[10:10]c
_RFConf::
	.blkb 2
	.area idata
	.byte 0,'L
	.area data(ram, con, rel)
	.dbfile F:\PROTELDXP\123\无线参考程序\开发板备份\JASK2001软件开发包\M16-NRF905开发包\无线AD传感\JIESHOU-LED\Wendu_jieshou.c
	.blkb 2
	.area idata
	.byte 12,'D
	.area data(ram, con, rel)
	.dbfile F:\PROTELDXP\123\无线参考程序\开发板备份\JASK2001软件开发包\M16-NRF905开发包\无线AD传感\JIESHOU-LED\Wendu_jieshou.c
	.blkb 2
	.area idata
	.byte 4,4
	.area data(ram, con, rel)
	.dbfile F:\PROTELDXP\123\无线参考程序\开发板备份\JASK2001软件开发包\M16-NRF905开发包\无线AD传感\JIESHOU-LED\Wendu_jieshou.c
	.blkb 2
	.area idata
	.byte 204,204
	.area data(ram, con, rel)
	.dbfile F:\PROTELDXP\123\无线参考程序\开发板备份\JASK2001软件开发包\M16-NRF905开发包\无线AD传感\JIESHOU-LED\Wendu_jieshou.c
	.blkb 2
	.area idata
	.byte 204,204
	.area data(ram, con, rel)
	.dbfile F:\PROTELDXP\123\无线参考程序\开发板备份\JASK2001软件开发包\M16-NRF905开发包\无线AD传感\JIESHOU-LED\Wendu_jieshou.c
	.blkb 1
	.area idata
	.byte 'X
	.area data(ram, con, rel)
	.dbfile F:\PROTELDXP\123\无线参考程序\开发板备份\JASK2001软件开发包\M16-NRF905开发包\无线AD传感\JIESHOU-LED\Wendu_jieshou.c
	.dbsym e RFConf _RFConf A[11:11]c
	.area text(rom, con, rel)
	.dbfile F:\PROTELDXP\123\无线参考程序\开发板备份\JASK2001软件开发包\M16-NRF905开发包\无线AD传感\JIESHOU-LED\Wendu_jieshou.c
	.dbfunc e Delay _Delay fV
;              i -> R20,R21
;              x -> R16,R17
	.even
_Delay::
	st -y,R20
	st -y,R21
	.dbline -1
	.dbline 99
; //ICC-AVR application builder : 2007-8-11 20:37:32
; // Target : M16
; // Crystal: 8.0000Mhz
; #include <iom16v.h>
; #include <macros.h>
; #define uint  unsigned int
; #define uchar unsigned char
; //---------------------------------NRF905模式控制定义---------------------------------
; //#define  nrf905_TX_EN	  PB0	    //输出1
; #define   Hign_nrf905_TX_EN    PORTB |= (1 << PB0);   
; #define   Low_nrf905_TX_EN     PORTB &= ~(1 << PB0); 
; //#define  nrf905_TRX_CE  PD4 	    //输出1
; #define   Hign_nrf905_TRX_CE    PORTD |= (1 << PD4);   
; #define   Low_nrf905_TRX_CE     PORTD &= ~(1 << PD4); 
; //#define  nrf905_PWR     PB1 	    //输出1
; #define   Hign_nrf905_PWR    PORTB |= (1 << PB1);   
; #define   Low_nrf905_PWR     PORTB &= ~(1 << PB1); 
; //--------------------------------NRF905-SPI口接口定义--------------------------
; //#define  nrf905_MISO	  PB6   	//输入0
; //#define  nrf905_MOSI    PB5	    //输出1
; //#define  nrf905_SCK     PB7	    //输出1
; #define   Low_nrf905_SCK     PORTB &= ~(1 << PB7); 
; //#define  nrf905_CSN     PB4		//输出1		
; #define   Hign_nrf905_CSN    PORTB |= (1 << PB4);   
; #define   Low_nrf905_CSN     PORTB &= ~(1 << PB4); 						
; //-------------------------------NRF905状态输出口-------------------------------
; //#define  nrf905_CD      PD3	    //输入0
; #define   Hign_nrf905_CD    PORTD |= (1 << PD3);   
; #define   Low_nrf905_CD     PORTD &= ~(1 << PD3); 
; #define   Read_nrf905_CD    PINB & (1 << PD3);
; //#define  nrf905_AM      PB3	    //输入0
; #define   Hign_nrf905_AM    PORTB |= (1 << PB3);   
; #define   Low_nrf905_AM     PORTB &= ~(1 << PB3); 
; #define   Read_nrf905_AM    PINB & (1 << PB3);
; //#define  nrf905_DR      PB2  		//输入0
; #define   Hign_nrf905_DR     PORTB |= (1 << PB2);   
; #define   Low_nrf905_DR     PORTB &= ~(1 << PB2); 
; #define   Read_nrf905_DR    PINB & (1 << PB2);   
; //------------------------------数码管位选--------------------------------------
; //#define Display1   PA1  		    //输出1
; #define   Hign_Display1     PORTA |= (1 << PA1);   
; #define   Low_Display1    PORTA &= ~(1 << PA1); 
; //#define Display2      PA2  		//输出1
; #define   Hign_Display2     PORTA |= (1 << PA2);   
; #define   Low_Display2    PORTA &= ~(1 << PA2); 
; //#define Display3     PA3  		//输出1
; #define   Hign_Display3     PORTA |= (1 << PA3);   
; #define   Low_Display3     PORTA &= ~(1 << PA3); 
; //#define Display4      PA4 		//输出1
; #define   Hign_Display4     PORTA |= (1 << PA4);   
; #define   Low_Display4     PORTA &= ~(1 << PA4);   
; //-------------------------------BELL蜂明器-------------------------------------
; #define   Hign_BELL  PORTD |= (1 << PD5);   
; #define   Low_BELL     PORTD &= ~(1 << PD5); 
; //-------------------------------JDQ继电器--------------------------------------
; #define   Hign_JDQ  PORTD |= (1 << PD7)
; #define   Low_JDQ     PORTD &= ~(1 << PD7) 
; //----------------------------------NRF905-SPI指令------------------------------
; #define WC	0x00
; #define RRC	0x10
; #define WTP	0x20
; #define RTP	0x21
; #define WTA	0x22
; #define RTA	0x23
; #define RRP	0x24
; //---------------------------------发送数据-------------------------------------
; uchar TxRxBuffer[4];
; //----------------------------------接收地址------------------------------------
; uchar TxAddress[4]={0xcc,0xcc,0xcc,0xcc };    
; uint temp[6];
; uchar seg[10]={0xC0,0xCF,0xA4,0xB0,0x99,0x92,0x82,0xF8,0x80,0x90};         //0~~9段码
; uchar seg1[10]={0x40,0x4F,0x24,0x30,0x19,0x12,0x02,0x78,0x00,0x10};
; //----------------------------------寄存器配置----------------------------------
; uchar RFConf[11]=
; {
;   0x00,                            //配置命令//
;   0x4c,                           //CH_NO,配置频段在430MHZ
;   0x0C,                          //输出功率为10db,不重发，节电为正常模式
;   0x44,                         //地址宽度设置，为4字节
;   0x04,0x04,                   //接收发送有效数据长度为32字节
;   0xCC,0xCC,0xCC,0xCC,        //接收地址
;   0x58,                      //CRC充许，8位CRC校验，外部时钟信号不使能，16M晶振
; };
; //----------------------------------NRF905函数申明------------------------------
; void Delay(uint x);						       //延时子程序																							
; void Spi_initial();                            //SPI初始化
; uchar SpiReadSpiWrite(unsigned char cData);    //SPI读写子程序
; void system_Init(void);		   				   //系统初始化
; void Config905(void);						   //NRF905初始化子程序
; void SetRxMode(void);						   //
; unsigned char CheckDR(void);
; void RxPacket(void);
; void  RX(void);
; //-------------------------------串口函数申明-----------------------------------
; void StartUART(void);
; void R_S_Byte(uchar R_Byte);
; //----------------------------------100us延时子程序-----------------------------
; void Delay(uint x)
; {
	xjmp L3
L2:
	.dbline 102
; 	uint i;
; 	while(x--)
; 	for(i=0;i<80;i++);
	clr R20
	clr R21
	xjmp L8
L5:
	.dbline 102
L6:
	.dbline 102
	subi R20,255  ; offset = 1
	sbci R21,255
L8:
	.dbline 102
	cpi R20,80
	ldi R30,0
	cpc R21,R30
	brlo L5
X0:
L3:
	.dbline 101
	movw R2,R16
	subi R16,1
	sbci R17,0
	tst R2
	brne L2
	tst R3
	brne L2
X1:
	.dbline -2
L1:
	.dbline 0 ; func end
	ld R21,y+
	ld R20,y+
	ret
	.dbsym r i 20 i
	.dbsym r x 16 i
	.dbend
	.dbfunc e Spi_initial _Spi_initial fV
	.even
_Spi_initial::
	.dbline -1
	.dbline 106
; }
; //----------------------------------SPI初始化-----------------------------------
; void Spi_initial()
; {
	.dbline 107
; 	SPCR   = (1<<SPE)|(1<<MSTR)|(0<<CPOL)|(0<<SPR0);// 主机模式，fck/16, SPI方式0
	ldi R24,80
	out 0xd,R24
	.dbline -2
L9:
	.dbline 0 ; func end
	ret
	.dbend
	.dbfunc e SpiReadSpiWrite _SpiReadSpiWrite fc
;          cData -> R16
	.even
_SpiReadSpiWrite::
	.dbline -1
	.dbline 111
; }
; //---------------------------------SPI读写程序----------------------------------	
; uchar SpiReadSpiWrite(unsigned char cData)
; {
	.dbline 112
; 	SPDR = cData;
	out 0xf,R16
L11:
	.dbline 114
; 	while(!(SPSR & (1<<SPIF) ))  // 等待SPI发送完毕
; 	{};			
	.dbline 114
L12:
	.dbline 113
	sbis 0xe,7
	rjmp L11
X2:
	.dbline 114
	.dbline 115
; 	return SPDR;
	in R16,0xf
	.dbline -2
L10:
	.dbline 0 ; func end
	ret
	.dbsym r cData 16 c
	.dbend
	.dbfunc e system_Init _system_Init fV
	.even
_system_Init::
	.dbline -1
	.dbline 119
; }
; //--------------------------------系统状态初始化--------------------------------
; void system_Init(void)			
; {
	.dbline 121
; 
;    	Hign_nrf905_CSN;			// SPI使能
	sbi 0x18,4
	.dbline 121
	.dbline 122
; 	Low_nrf905_SCK;				
	cbi 0x18,7
	.dbline 122
	.dbline 123
; 	Low_nrf905_DR;				// DR=0
	cbi 0x18,2
	.dbline 123
	.dbline 124
; 	Low_nrf905_AM;				// AM=0
	cbi 0x18,3
	.dbline 124
	.dbline 125
; 	Low_nrf905_CD;				// CD=0
	cbi 0x12,3
	.dbline 125
	.dbline 126
; 	Hign_nrf905_PWR;		    // PWR=1
	sbi 0x18,1
	.dbline 126
	.dbline 127
; 	Low_nrf905_TRX_CE;			// nrf905_TRX_CE=0
	cbi 0x12,4
	.dbline 127
	.dbline 128
; 	Low_nrf905_TX_EN ;			// nrf905_TX_EN=0
	cbi 0x18,0
	.dbline 128
	.dbline -2
L14:
	.dbline 0 ; func end
	ret
	.dbend
	.dbfunc e Config905 _Config905 fV
;              i -> R20
	.even
_Config905::
	st -y,R20
	st -y,R21
	.dbline -1
	.dbline 132
; }
; //--------------------------------NRF905寄存器初始化函数------------------------
; void Config905(void)
; {
	.dbline 134
; 	uchar i;
; 	Low_nrf905_CSN;				//SPI使能											
	cbi 0x18,4
	.dbline 134
	.dbline 135
; 	Delay(1);				   
	ldi R16,1
	ldi R17,0
	xcall _Delay
	.dbline 136
; 	for (i=0;i<11;i++)			//写RF905配置字
	clr R20
	xjmp L19
L16:
	.dbline 137
; 	{
	.dbline 138
; 	 SpiReadSpiWrite(RFConf[i]);
	ldi R24,<_RFConf
	ldi R25,>_RFConf
	mov R30,R20
	clr R31
	add R30,R24
	adc R31,R25
	ldd R16,z+0
	xcall _SpiReadSpiWrite
	.dbline 139
; 	}
L17:
	.dbline 136
	inc R20
L19:
	.dbline 136
	cpi R20,11
	brlo L16
X3:
	.dbline 140
; 	Hign_nrf905_CSN;					// Disable Spi
	sbi 0x18,4
	.dbline 140
	.dbline -2
L15:
	.dbline 0 ; func end
	ld R21,y+
	ld R20,y+
	ret
	.dbsym r i 20 c
	.dbend
	.dbfunc e SetRxMode _SetRxMode fV
	.even
_SetRxMode::
	.dbline -1
	.dbline 144
; }
; //------------------------------设置接收模式激发--------------------------------
; void SetRxMode(void)
; {
	.dbline 145
; 	Low_nrf905_TX_EN;
	cbi 0x18,0
	.dbline 145
	.dbline 146
; 	Hign_nrf905_TRX_CE;
	sbi 0x12,4
	.dbline 146
	.dbline 147
; 	Delay(10); 					// delay for mode change(>=650us)
	ldi R16,10
	ldi R17,0
	xcall _Delay
	.dbline -2
L20:
	.dbline 0 ; func end
	ret
	.dbend
	.dbfunc e CheckDR _CheckDR fc
	.even
_CheckDR::
	.dbline -1
	.dbline 151
; }
; //-----------------------------判断是否收到数据---------------------------------
; unsigned char CheckDR(void)		//检查是否有新数据传入 
; {
	.dbline 152
; 	if (PINB & (1 << PB2))
	sbis 0x16,2
	rjmp L22
X4:
	.dbline 153
; 	{
	.dbline 154
; 		return 1; 	 	  		//收到数据
	ldi R16,1
	xjmp L21
L22:
	.dbline 157
; 	}
; 	else
; 	{
	.dbline 158
; 		return 0;
	clr R16
	.dbline -2
L21:
	.dbline 0 ; func end
	ret
	.dbend
	.dbfunc e RxPacket _RxPacket fV
;              i -> R20
	.even
_RxPacket::
	st -y,R20
	st -y,R21
	.dbline -1
	.dbline 163
; 	}
; }
; //-----------------------------------读接收数据包-------------------------------
; void RxPacket(void)							//读数据
; {
	.dbline 165
; 	uchar i;
;     Low_nrf905_TRX_CE;
	cbi 0x12,4
	.dbline 165
	.dbline 166
; 	Low_nrf905_CSN;						    // 使能SPI
	cbi 0x18,4
	.dbline 166
	.dbline 167
;     Delay(1);
	ldi R16,1
	ldi R17,0
	xcall _Delay
	.dbline 168
; 	SpiReadSpiWrite(RRP);				   // 写入数据接收缓冲区数据命令
	ldi R16,36
	xcall _SpiReadSpiWrite
	.dbline 169
; 	for (i = 0 ;i < 4 ;i++)
	clr R20
	xjmp L28
L25:
	.dbline 170
; 	{   
	.dbline 171
; 	TxRxBuffer[i]=SpiReadSpiWrite(0);	  // 读取数据接收缓冲区数据       
	clr R16
	xcall _SpiReadSpiWrite
	ldi R24,<_TxRxBuffer
	ldi R25,>_TxRxBuffer
	mov R30,R20
	clr R31
	add R30,R24
	adc R31,R25
	std z+0,R16
	.dbline 172
; 	}
L26:
	.dbline 169
	inc R20
L28:
	.dbline 169
	cpi R20,4
	brlo L25
X5:
	.dbline 173
; 	Hign_nrf905_CSN;
	sbi 0x18,4
	.dbline 173
	.dbline 174
;     Delay(2);                            //
	ldi R16,2
	ldi R17,0
	xcall _Delay
	.dbline 175
; 	Hign_nrf905_TRX_CE;							
	sbi 0x12,4
	.dbline 175
	.dbline -2
L24:
	.dbline 0 ; func end
	ld R21,y+
	ld R20,y+
	ret
	.dbsym r i 20 c
	.dbend
	.dbfunc e RX _RX fV
	.even
_RX::
	.dbline -1
	.dbline 179
; }
; //--------------------------------设置接收模式----------------------------------
; void  RX(void)
; {
	.dbline 180
;     SetRxMode();			          //设置NRF905接收模式
	xcall _SetRxMode
L30:
	.dbline 181
;   while (CheckDR()==0);	         //等待接收完成
L31:
	.dbline 181
	xcall _CheckDR
	tst R16
	breq L30
X6:
	.dbline 182
; 	RxPacket();                     //读取接收数据缓冲区
	xcall _RxPacket
	.dbline 183
; 	Delay(10);
	ldi R16,10
	ldi R17,0
	xcall _Delay
	.dbline -2
L29:
	.dbline 0 ; func end
	ret
	.dbend
	.dbfunc e StartUART _StartUART fV
	.even
_StartUART::
	.dbline -1
	.dbline 187
; }
; //-------------------------------串口初始化-------------------------------------
; void StartUART(void)
; {
	.dbline 188
;  	 UCSRA=0x00;	
	clr R2
	out 0xb,R2
	.dbline 189
; 	 UCSRB=0x18;	
	ldi R24,24
	out 0xa,R24
	.dbline 190
; 	 UCSRC=0x06;	
	ldi R24,6
	out 0x20,R24
	.dbline 191
; 	 UBRRL=0x67;
	ldi R24,103
	out 0x9,R24
	.dbline 192
; 	 UBRRH=0x00;
	out 0x20,R2
	.dbline 193
; 	 UCSRA=UCSRA|0x08;	
	sbi 0xb,3
	.dbline -2
L33:
	.dbline 0 ; func end
	ret
	.dbend
	.dbfunc e R_S_Byte _R_S_Byte fV
;         R_Byte -> R16
	.even
_R_S_Byte::
	.dbline -1
	.dbline 197
; }
; //------------------------------串口发送----------------------------------------
; void R_S_Byte(uchar R_Byte)
; {	
	.dbline 198
;      UDR= R_Byte;  
	out 0xc,R16
	.dbline -2
L34:
	.dbline 0 ; func end
	ret
	.dbsym r R_Byte 16 c
	.dbend
	.dbfunc e dis_zhuye _dis_zhuye fV
	.even
_dis_zhuye::
	.dbline -1
	.dbline 202
; }
; //------------------------------------------------------------------------------
; void dis_zhuye()
; {
	.dbline 203
; 	 PORTC=seg1[TxRxBuffer[1]];
	ldi R24,<_seg1
	ldi R25,>_seg1
	lds R30,_TxRxBuffer+1
	clr R31
	add R30,R24
	adc R31,R25
	ldd R2,z+0
	out 0x15,R2
	.dbline 204
; 	 Hign_Display4;
	sbi 0x1b,4
	.dbline 204
	.dbline 205
; 	 Hign_Display3;
	sbi 0x1b,3
	.dbline 205
	.dbline 206
; 	 Hign_Display2;
	sbi 0x1b,2
	.dbline 206
	.dbline 207
; 	 Low_Display1;
	cbi 0x1b,1
	.dbline 207
	.dbline 208
; 	 Delay(80);
	ldi R16,80
	ldi R17,0
	xcall _Delay
	.dbline 209
; 	 Hign_Display1;
	sbi 0x1b,1
	.dbline 209
	.dbline 211
; //------------------------------------------------------------------------------
; 	 PORTC=seg[TxRxBuffer[2]];
	ldi R24,<_seg
	ldi R25,>_seg
	lds R30,_TxRxBuffer+2
	clr R31
	add R30,R24
	adc R31,R25
	ldd R2,z+0
	out 0x15,R2
	.dbline 212
; 	 Low_Display2;
	cbi 0x1b,2
	.dbline 212
	.dbline 213
; 	 Delay(80);
	ldi R16,80
	ldi R17,0
	xcall _Delay
	.dbline 214
; 	 Hign_Display2;
	sbi 0x1b,2
	.dbline 214
	.dbline 216
; //------------------------------------------------ ---------------------------
; 	 PORTC=seg[TxRxBuffer[3]];
	ldi R24,<_seg
	ldi R25,>_seg
	lds R30,_TxRxBuffer+3
	clr R31
	add R30,R24
	adc R31,R25
	ldd R2,z+0
	out 0x15,R2
	.dbline 217
; 	 Low_Display3;
	cbi 0x1b,3
	.dbline 217
	.dbline 218
; 	 Delay(80);
	ldi R16,80
	ldi R17,0
	xcall _Delay
	.dbline 219
; 	 Hign_Display3;
	sbi 0x1b,3
	.dbline 219
	.dbline 221
; //----------------------------------------------------------------------------- 
; 	 PORTC=0xc1;
	ldi R24,193
	out 0x15,R24
	.dbline 222
; 	 Low_Display4;
	cbi 0x1b,4
	.dbline 222
	.dbline 223
; 	 Delay(80);
	ldi R16,80
	ldi R17,0
	xcall _Delay
	.dbline 224
; 	 Hign_Display4;	 
	sbi 0x1b,4
	.dbline 224
	.dbline -2
L35:
	.dbline 0 ; func end
	ret
	.dbend
	.dbfunc e main _main fV
;              i -> <dead>
	.even
_main::
	.dbline -1
	.dbline 228
; }
; //------------------------------主函数------------------------------------------
; void main(void)
; {  
	.dbline 230
; 	uchar i;
; 	DDRD=0xb2;		  //
	ldi R24,178
	out 0x11,R24
	.dbline 231
; 	DDRB=0xB3;		  //
	ldi R24,179
	out 0x17,R24
	.dbline 232
; 	DDRA=0x1e;       //
	ldi R24,30
	out 0x1a,R24
	.dbline 233
; 	DDRC=0xff; 		//LED端口设置
	ldi R24,255
	out 0x14,R24
	.dbline 234
; 	PORTA = 0xff;
	out 0x1b,R24
	.dbline 235
; 	Hign_BELL;	
	sbi 0x12,5
	.dbline 235
	.dbline 236
; 	Hign_JDQ ;				
	sbi 0x12,7
	.dbline 238
; //------------------------------------------------------------------------------				  			 				
; 	Spi_initial();	                //SPI初始化															  
	xcall _Spi_initial
	.dbline 239
; 	system_Init();				   //系统状态初始化												
	xcall _system_Init
	.dbline 240
; 	Config905();  				  //NRF905初始化	
	xcall _Config905
	.dbline 241
; 	StartUART();
	xcall _StartUART
	.dbline 242
; 	Delay(500);			  
	ldi R16,500
	ldi R17,1
	xcall _Delay
	xjmp L41
L40:
	.dbline 245
; //------------------------------------------------------------------------------
; 	while(1)
; 	{
	.dbline 246
; 	RX();  					//接收数据
	xcall _RX
	.dbline 247
; 	if(TxRxBuffer[0]||TxRxBuffer[1]||TxRxBuffer[2])
	lds R2,_TxRxBuffer
	tst R2
	brne L48
X7:
	lds R2,_TxRxBuffer+1
	tst R2
	brne L48
X8:
	lds R2,_TxRxBuffer+2
	tst R2
	breq L43
X9:
L48:
	.dbline 248
; 	{
	.dbline 249
; 	dis_zhuye();
	xcall _dis_zhuye
	.dbline 250
; 	}
L43:
	.dbline 258
; 	/*
; 	for(i=0;i<4;i++)
; 	{
; 	R_S_Byte(TxRxBuffer[i+1]);
; 	Delay(500);
; 	}
; 	*/
; 	}
L41:
	.dbline 244
	xjmp L40
X10:
	.dbline -2
L39:
	.dbline 0 ; func end
	ret
	.dbsym l i 1 c
	.dbend
	.area bss(ram, con, rel)
	.dbfile F:\PROTELDXP\123\无线参考程序\开发板备份\JASK2001软件开发包\M16-NRF905开发包\无线AD传感\JIESHOU-LED\Wendu_jieshou.c
_temp::
	.blkb 12
	.dbsym e temp _temp A[12:6]i
_TxRxBuffer::
	.blkb 4
	.dbsym e TxRxBuffer _TxRxBuffer A[4:4]c
; }
